; Function Attrs: mustprogress nounwind uwtable
define void @_ZN4LIEF2PE19ResourceStringTableD2Ev(ptr noundef nonnull align 8 dereferenceable(42) %0) unnamed_addr #3 align 2 personality ptr @__gxx_personality_v0 {
  store ptr getelementptr inbounds ({ [7 x ptr] }, ptr @_ZTVN4LIEF2PE19ResourceStringTableE, i64 0, i32 0, i64 2), ptr %0, align 8
  %2 = getelementptr inbounds i8, ptr %0, i64 8
  %3 = load ptr, ptr %2, align 8
  %4 = getelementptr inbounds i8, ptr %0, i64 24
  %5 = icmp eq ptr %3, %4
  br i1 %5, label %_ZNKSt7__cxx1112basic_stringIDsSt11char_traitsIDsESaIDsEE11_M_is_localEv.exit.thread.i.i, label %_ZNKSt7__cxx1112basic_stringIDsSt11char_traitsIDsESaIDsEE11_M_is_localEv.exit.i.i

_ZNKSt7__cxx1112basic_stringIDsSt11char_traitsIDsESaIDsEE11_M_is_localEv.exit.thread.i.i: ; preds = %1
  %6 = getelementptr inbounds i8, ptr %0, i64 16
  %7 = load i64, ptr %6, align 8
  %8 = icmp ult i64 %7, 8
  tail call void @llvm.assume(i1 %8)
  br label %_ZNSt7__cxx1112basic_stringIDsSt11char_traitsIDsESaIDsEED2Ev.exit

_ZNKSt7__cxx1112basic_stringIDsSt11char_traitsIDsESaIDsEE11_M_is_localEv.exit.i.i: ; preds = %1
  tail call void @_ZdlPv(ptr noundef %3) #15
  br label %_ZNSt7__cxx1112basic_stringIDsSt11char_traitsIDsESaIDsEED2Ev.exit

_ZNSt7__cxx1112basic_stringIDsSt11char_traitsIDsESaIDsEED2Ev.exit: ; preds = %_ZNKSt7__cxx1112basic_stringIDsSt11char_traitsIDsESaIDsEE11_M_is_localEv.exit.thread.i.i, %_ZNKSt7__cxx1112basic_stringIDsSt11char_traitsIDsESaIDsEE11_M_is_localEv.exit.i.i
  tail call void @_ZN4LIEF6ObjectD2Ev(ptr noundef nonnull align 8 dereferenceable(8) %0) #14
  ret void
}